target datalayout = "e-m:e-p270:32:32-p271:32:32-p272:64:64-i64:64-i128:128-f80:128-n8:16:32:64-S128"
target triple = "x86_64-pc-linux-gnu"

%struct.jit_State = type { %struct.GCtrace, ptr, ptr, ptr, ptr, ptr, ptr, i32, i32, i32, i8, i8, %struct.IRType1, i8, %struct.FoldState, ptr, i32, i32, i32, i32, i32, i32, i32, [1 x i32], [5 x %union.TValue], [3 x %union.TValue], ptr, i32, i32, i32, i32, ptr, ptr, i32, i32, i8, ptr, i32, i32, i16, [101 x i16], [258 x i32], [15 x i32], [16 x ptr], [64 x %struct.HotPenalty], i32, [16 x %struct.BPropEntry], i32, %struct.ScEvEntry, ptr, i32, i32, i32, ptr, i32, i32, ptr, ptr, ptr, i64, i64, %union.TValue, ptr, i32, i32 }
%struct.GCtrace = type { %struct.GCRef, i8, i8, i16, i32, i32, %struct.GCRef, ptr, i32, i32, ptr, ptr, %struct.GCRef, %struct.MRef, i32, i32, ptr, i32, i16, i16, i16, i16, i16, i16, i16, i8, i8, i8, i8 }
%struct.GCRef = type { i64 }
%struct.MRef = type { i64 }
%struct.IRType1 = type { i8 }
%struct.FoldState = type { %union.IRIns, [2 x %union.IRIns], [2 x %union.IRIns] }
%union.IRIns = type { %struct.GCRef }
%struct.HotPenalty = type { %struct.MRef, i16, i16 }
%struct.BPropEntry = type { i16, i16, i32 }
%struct.ScEvEntry = type { %struct.MRef, i16, i16, i16, i16, %struct.IRType1, i8 }
%union.TValue = type { i64 }
%struct.anon = type { i16, i16, i16, i16 }
%struct.anon.0 = type { i32, %struct.IRType1, i8, i8, i8 }

; Function Attrs: alwaysinline nounwind uwtable
define internal void @lj_ir_nop(ptr noundef %0) #3 {
  %2 = alloca ptr, align 8
  store ptr %0, ptr %2, align 8, !tbaa !32
  %3 = load ptr, ptr %2, align 8, !tbaa !32
  %4 = getelementptr inbounds nuw %struct.anon, ptr %3, i32 0, i32 2
  store i16 3072, ptr %4, align 4, !tbaa !11
  %5 = load ptr, ptr %2, align 8, !tbaa !32
  %6 = getelementptr inbounds nuw %struct.anon, ptr %5, i32 0, i32 1
  store i16 0, ptr %6, align 2, !tbaa !11
  %7 = load ptr, ptr %2, align 8, !tbaa !32
  %8 = getelementptr inbounds nuw %struct.anon, ptr %7, i32 0, i32 0
  store i16 0, ptr %8, align 8, !tbaa !11
  %9 = load ptr, ptr %2, align 8, !tbaa !32
  %10 = getelementptr inbounds nuw %struct.anon, ptr %9, i32 0, i32 3
  store i16 0, ptr %10, align 2, !tbaa !11
  ret void
}

; Function Attrs: nounwind uwtable
define hidden i32 @lj_opt_dse_ahstore(ptr noundef %0) #0 {
  %2 = alloca i32, align 4
  %3 = alloca ptr, align 8
  %4 = alloca i32, align 4
  %5 = alloca i32, align 4
  %6 = alloca ptr, align 8
  %7 = alloca ptr, align 8
  %8 = alloca i32, align 4
  %9 = alloca ptr, align 8
  %10 = alloca i32, align 4
  %11 = alloca ptr, align 8
  store ptr %0, ptr %3, align 8, !tbaa !4
  call void @llvm.lifetime.start.p0(i64 4, ptr %4) #5
  %12 = load ptr, ptr %3, align 8, !tbaa !4
  %13 = getelementptr inbounds nuw %struct.jit_State, ptr %12, i32 0, i32 14
  %14 = getelementptr inbounds nuw %struct.FoldState, ptr %13, i32 0, i32 0
  %15 = getelementptr inbounds nuw %struct.anon, ptr %14, i32 0, i32 0
  %16 = load i16, ptr %15, align 8, !tbaa !11
  %17 = zext i16 %16 to i32
  store i32 %17, ptr %4, align 4, !tbaa !9
  call void @llvm.lifetime.start.p0(i64 4, ptr %5) #5
  %18 = load ptr, ptr %3, align 8, !tbaa !4
  %19 = getelementptr inbounds nuw %struct.jit_State, ptr %18, i32 0, i32 14
  %20 = getelementptr inbounds nuw %struct.FoldState, ptr %19, i32 0, i32 0
  %21 = getelementptr inbounds nuw %struct.anon, ptr %20, i32 0, i32 1
  %22 = load i16, ptr %21, align 2, !tbaa !11
  %23 = zext i16 %22 to i32
  store i32 %23, ptr %5, align 4, !tbaa !9
  call void @llvm.lifetime.start.p0(i64 8, ptr %6) #5
  %24 = load ptr, ptr %3, align 8, !tbaa !4
  %25 = getelementptr inbounds nuw %struct.jit_State, ptr %24, i32 0, i32 0
  %26 = getelementptr inbounds nuw %struct.GCtrace, ptr %25, i32 0, i32 7
  %27 = load ptr, ptr %26, align 8, !tbaa !14
  %28 = load i32, ptr %4, align 4, !tbaa !9
  %29 = zext i32 %28 to i64
  %30 = getelementptr inbounds nuw %union.IRIns, ptr %27, i64 %29
  store ptr %30, ptr %6, align 8, !tbaa !32
  call void @llvm.lifetime.start.p0(i64 8, ptr %7) #5
  %31 = load ptr, ptr %3, align 8, !tbaa !4
  %32 = getelementptr inbounds nuw %struct.jit_State, ptr %31, i32 0, i32 40
  %33 = load ptr, ptr %3, align 8, !tbaa !4
  %34 = getelementptr inbounds nuw %struct.jit_State, ptr %33, i32 0, i32 14
  %35 = getelementptr inbounds nuw %struct.FoldState, ptr %34, i32 0, i32 0
  %36 = getelementptr inbounds nuw %struct.anon.0, ptr %35, i32 0, i32 2
  %37 = load i8, ptr %36, align 1, !tbaa !11
  %38 = zext i8 %37 to i64
  %39 = getelementptr inbounds nuw [101 x i16], ptr %32, i64 0, i64 %38
  store ptr %39, ptr %7, align 8, !tbaa !47
  call void @llvm.lifetime.start.p0(i64 4, ptr %8) #5
  %40 = load ptr, ptr %7, align 8, !tbaa !47
  %41 = load i16, ptr %40, align 2, !tbaa !12
  %42 = zext i16 %41 to i32
  store i32 %42, ptr %8, align 4, !tbaa !9
  br label %43

43:                                               ; preds = %144, %1
  %44 = load i32, ptr %8, align 4, !tbaa !9
  %45 = load i32, ptr %4, align 4, !tbaa !9
  %46 = icmp ugt i32 %44, %45
  br i1 %46, label %47, label %145

47:                                               ; preds = %43
  call void @llvm.lifetime.start.p0(i64 8, ptr %9) #5
  %48 = load ptr, ptr %3, align 8, !tbaa !4
  %49 = getelementptr inbounds nuw %struct.jit_State, ptr %48, i32 0, i32 0
  %50 = getelementptr inbounds nuw %struct.GCtrace, ptr %49, i32 0, i32 7
  %51 = load ptr, ptr %50, align 8, !tbaa !14
  %52 = load i32, ptr %8, align 4, !tbaa !9
  %53 = zext i32 %52 to i64
  %54 = getelementptr inbounds nuw %union.IRIns, ptr %51, i64 %53
  store ptr %54, ptr %9, align 8, !tbaa !32
  %55 = load ptr, ptr %3, align 8, !tbaa !4
  %56 = load ptr, ptr %6, align 8, !tbaa !32
  %57 = load ptr, ptr %3, align 8, !tbaa !4
  %58 = getelementptr inbounds nuw %struct.jit_State, ptr %57, i32 0, i32 0
  %59 = getelementptr inbounds nuw %struct.GCtrace, ptr %58, i32 0, i32 7
  %60 = load ptr, ptr %59, align 8, !tbaa !14
  %61 = load ptr, ptr %9, align 8, !tbaa !32
  %62 = getelementptr inbounds nuw %struct.anon, ptr %61, i32 0, i32 0
  %63 = load i16, ptr %62, align 8, !tbaa !11
  %64 = zext i16 %63 to i64
  %65 = getelementptr inbounds nuw %union.IRIns, ptr %60, i64 %64
  %66 = call i32 @aa_ahref(ptr noundef %55, ptr noundef %56, ptr noundef %65)
  switch i32 %66, label %137 [
    i32 0, label %137
    i32 1, label %67
    i32 2, label %76
  ]

67:                                               ; preds = %47
  %68 = load ptr, ptr %9, align 8, !tbaa !32
  %69 = getelementptr inbounds nuw %struct.anon, ptr %68, i32 0, i32 1
  %70 = load i16, ptr %69, align 2, !tbaa !11
  %71 = zext i16 %70 to i32
  %72 = load i32, ptr %5, align 4, !tbaa !9
  %73 = icmp ne i32 %71, %72
  br i1 %73, label %74, label %75

74:                                               ; preds = %67
  store i32 5, ptr %10, align 4
  br label %142

75:                                               ; preds = %67
  br label %137

76:                                               ; preds = %47
  %77 = load ptr, ptr %9, align 8, !tbaa !32
  %78 = getelementptr inbounds nuw %struct.anon, ptr %77, i32 0, i32 1
  %79 = load i16, ptr %78, align 2, !tbaa !11
  %80 = zext i16 %79 to i32
  %81 = load i32, ptr %5, align 4, !tbaa !9
  %82 = icmp eq i32 %80, %81
  br i1 %82, label %83, label %84

83:                                               ; preds = %76
  store i32 4, ptr %2, align 4
  store i32 1, ptr %10, align 4
  br label %142

84:                                               ; preds = %76
  %85 = load i32, ptr %8, align 4, !tbaa !9
  %86 = load ptr, ptr %3, align 8, !tbaa !4
  %87 = getelementptr inbounds nuw %struct.jit_State, ptr %86, i32 0, i32 40
  %88 = getelementptr inbounds [101 x i16], ptr %87, i64 0, i64 17
  %89 = load i16, ptr %88, align 2, !tbaa !12
  %90 = zext i16 %89 to i32
  %91 = icmp ugt i32 %85, %90
  br i1 %91, label %92, label %136

92:                                               ; preds = %84
  call void @llvm.lifetime.start.p0(i64 8, ptr %11) #5
  %93 = load ptr, ptr %3, align 8, !tbaa !4
  %94 = getelementptr inbounds nuw %struct.jit_State, ptr %93, i32 0, i32 0
  %95 = getelementptr inbounds nuw %struct.GCtrace, ptr %94, i32 0, i32 7
  %96 = load ptr, ptr %95, align 8, !tbaa !14
  %97 = load ptr, ptr %3, align 8, !tbaa !4
  %98 = getelementptr inbounds nuw %struct.jit_State, ptr %97, i32 0, i32 0
  %99 = getelementptr inbounds nuw %struct.GCtrace, ptr %98, i32 0, i32 4
  %100 = load i32, ptr %99, align 4, !tbaa !49
  %101 = sub i32 %100, 1
  %102 = zext i32 %101 to i64
  %103 = getelementptr inbounds nuw %union.IRIns, ptr %96, i64 %102
  store ptr %103, ptr %11, align 8, !tbaa !32
  br label %104

104:                                              ; preds = %124, %92
  %105 = load ptr, ptr %11, align 8, !tbaa !32
  %106 = load ptr, ptr %9, align 8, !tbaa !32
  %107 = icmp ugt ptr %105, %106
  br i1 %107, label %108, label %127

108:                                              ; preds = %104
  %109 = load ptr, ptr %11, align 8, !tbaa !32
  %110 = getelementptr inbounds nuw %struct.anon.0, ptr %109, i32 0, i32 1
  %111 = getelementptr inbounds nuw %struct.IRType1, ptr %110, i32 0, i32 0
  %112 = load i8, ptr %111, align 4, !tbaa !11
  %113 = zext i8 %112 to i32
  %114 = and i32 %113, 128
  %115 = icmp ne i32 %114, 0
  br i1 %115, label %122, label %116

116:                                              ; preds = %108
  %117 = load ptr, ptr %11, align 8, !tbaa !32
  %118 = getelementptr inbounds nuw %struct.anon.0, ptr %117, i32 0, i32 2
  %119 = load i8, ptr %118, align 1, !tbaa !11
  %120 = zext i8 %119 to i32
  %121 = icmp eq i32 %120, 73
  br i1 %121, label %122, label %123

122:                                              ; preds = %116, %108
  store i32 5, ptr %10, align 4
  br label %133

123:                                              ; preds = %116
  br label %124

124:                                              ; preds = %123
  %125 = load ptr, ptr %11, align 8, !tbaa !32
  %126 = getelementptr inbounds %union.IRIns, ptr %125, i32 -1
  store ptr %126, ptr %11, align 8, !tbaa !32
  br label %104, !llvm.loop !50

127:                                              ; preds = %104
  %128 = load ptr, ptr %9, align 8, !tbaa !32
  %129 = getelementptr inbounds nuw %struct.anon, ptr %128, i32 0, i32 3
  %130 = load i16, ptr %129, align 2, !tbaa !11
  %131 = load ptr, ptr %7, align 8, !tbaa !47
  store i16 %130, ptr %131, align 2, !tbaa !12
  %132 = load ptr, ptr %9, align 8, !tbaa !32
  call void @lj_ir_nop(ptr noundef %132)
  store i32 0, ptr %10, align 4
  br label %133

133:                                              ; preds = %122, %127
  call void @llvm.lifetime.end.p0(i64 8, ptr %11) #5
  %134 = load i32, ptr %10, align 4
  switch i32 %134, label %142 [
    i32 0, label %135
  ]

135:                                              ; preds = %133
  br label %136

136:                                              ; preds = %135, %84
  store i32 5, ptr %10, align 4
  br label %142

137:                                              ; preds = %47, %75, %47
  %138 = load ptr, ptr %9, align 8, !tbaa !32
  %139 = getelementptr inbounds nuw %struct.anon, ptr %138, i32 0, i32 3
  store ptr %139, ptr %7, align 8, !tbaa !47
  %140 = load i16, ptr %139, align 2, !tbaa !12
  %141 = zext i16 %140 to i32
  store i32 %141, ptr %8, align 4, !tbaa !9
  store i32 0, ptr %10, align 4
  br label %142

142:                                              ; preds = %136, %74, %137, %133, %83
  call void @llvm.lifetime.end.p0(i64 8, ptr %9) #5
  %143 = load i32, ptr %10, align 4
  switch i32 %143, label %149 [
    i32 0, label %144
    i32 5, label %146
  ]

144:                                              ; preds = %142
  br label %43, !llvm.loop !51

145:                                              ; preds = %43
  br label %146

146:                                              ; preds = %145, %142
  %147 = load ptr, ptr %3, align 8, !tbaa !4
  %148 = call i32 @lj_ir_emit(ptr noundef %147)
  store i32 %148, ptr %2, align 4
  store i32 1, ptr %10, align 4
  br label %149

149:                                              ; preds = %146, %142
  call void @llvm.lifetime.end.p0(i64 4, ptr %8) #5
  call void @llvm.lifetime.end.p0(i64 8, ptr %7) #5
  call void @llvm.lifetime.end.p0(i64 8, ptr %6) #5
  call void @llvm.lifetime.end.p0(i64 4, ptr %5) #5
  call void @llvm.lifetime.end.p0(i64 4, ptr %4) #5
  %150 = load i32, ptr %2, align 4
  ret i32 %150
}