; Function Attrs: nounwind uwtable
define hidden i32 @lj_opt_dse_ahstore(ptr noundef %0) local_unnamed_addr #2 {
  %2 = getelementptr inbounds nuw i8, ptr %0, i64 184
  %3 = load i16, ptr %2, align 8, !tbaa !4
  %4 = getelementptr inbounds nuw i8, ptr %0, i64 186
  %5 = load i16, ptr %4, align 2, !tbaa !4
  %6 = getelementptr inbounds nuw i8, ptr %0, i64 32
  %7 = load ptr, ptr %6, align 8, !tbaa !7
  %8 = zext i16 %3 to i64
  %9 = getelementptr inbounds nuw %union.IRIns, ptr %7, i64 %8
  %10 = getelementptr inbounds nuw i8, ptr %0, i64 402
  %11 = getelementptr inbounds nuw i8, ptr %0, i64 189
  %12 = load i8, ptr %11, align 1, !tbaa !4
  %13 = zext i8 %12 to i64
  %14 = getelementptr inbounds nuw [101 x i16], ptr %10, i64 0, i64 %13
  %.038.in59 = load i16, ptr %14, align 2, !tbaa !33
  %15 = icmp ugt i16 %.038.in59, %3
  br i1 %15, label %.lr.ph, label %.thread47

.lr.ph:                                           ; preds = %1, %50
  %.038.in61 = phi i16 [ %.038.in, %50 ], [ %.038.in59, %1 ]
  %.04060 = phi ptr [ %51, %50 ], [ %14, %1 ]
  %16 = zext i16 %.038.in61 to i64
  %17 = getelementptr inbounds nuw %union.IRIns, ptr %7, i64 %16
  %18 = load i16, ptr %17, align 8, !tbaa !4
  %19 = zext i16 %18 to i64
  %20 = getelementptr inbounds nuw %union.IRIns, ptr %7, i64 %19
  %21 = tail call fastcc i32 @aa_ahref(ptr noundef nonnull %0, ptr noundef %9, ptr noundef %20)
  switch i32 %21, label %50 [
    i32 2, label %25
    i32 1, label %22
  ]

22:                                               ; preds = %.lr.ph
  %23 = getelementptr inbounds nuw i8, ptr %17, i64 2
  %24 = load i16, ptr %23, align 2, !tbaa !4
  %.not = icmp eq i16 %24, %5
  br i1 %.not, label %50, label %.thread47

25:                                               ; preds = %.lr.ph
  %26 = getelementptr inbounds nuw i8, ptr %17, i64 2
  %27 = load i16, ptr %26, align 2, !tbaa !4
  %28 = icmp eq i16 %27, %5
  br i1 %28, label %.thread51, label %29

29:                                               ; preds = %25
  %30 = getelementptr inbounds nuw i8, ptr %0, i64 436
  %31 = load i16, ptr %30, align 2, !tbaa !33
  %32 = icmp ugt i16 %.038.in61, %31
  br i1 %32, label %33, label %.thread47

33:                                               ; preds = %29
  %34 = getelementptr inbounds nuw i8, ptr %0, i64 12
  %35 = load i32, ptr %34, align 4, !tbaa !38
  %36 = add i32 %35, -1
  %37 = zext i32 %36 to i64
  %.not4463 = icmp samesign ugt i64 %37, %16
  br i1 %.not4463, label %.lr.ph65.preheader, label %._crit_edge

.lr.ph65.preheader:                               ; preds = %33
  %38 = getelementptr inbounds nuw %union.IRIns, ptr %7, i64 %37
  br label %.lr.ph65

39:                                               ; preds = %43
  %40 = getelementptr inbounds i8, ptr %.064, i64 -8
  %.not44 = icmp ugt ptr %40, %17
  br i1 %.not44, label %.lr.ph65, label %._crit_edge, !llvm.loop !39

.lr.ph65:                                         ; preds = %.lr.ph65.preheader, %39
  %.064 = phi ptr [ %40, %39 ], [ %38, %.lr.ph65.preheader ]
  %41 = getelementptr inbounds nuw i8, ptr %.064, i64 4
  %42 = load i8, ptr %41, align 4, !tbaa !4
  %.not43 = icmp sgt i8 %42, -1
  br i1 %.not43, label %43, label %.thread47

43:                                               ; preds = %.lr.ph65
  %44 = getelementptr inbounds nuw i8, ptr %.064, i64 5
  %45 = load i8, ptr %44, align 1, !tbaa !4
  %46 = icmp eq i8 %45, 73
  br i1 %46, label %.thread47, label %39

._crit_edge:                                      ; preds = %39, %33
  %47 = getelementptr inbounds nuw i8, ptr %17, i64 6
  %48 = load i16, ptr %47, align 2, !tbaa !4
  store i16 %48, ptr %.04060, align 2, !tbaa !33
  %49 = getelementptr inbounds nuw i8, ptr %17, i64 4
  store i16 3072, ptr %49, align 4, !tbaa !4
  store i16 0, ptr %26, align 2, !tbaa !4
  store i16 0, ptr %17, align 8, !tbaa !4
  store i16 0, ptr %47, align 2, !tbaa !4
  br label %.thread47

50:                                               ; preds = %.lr.ph, %22
  %51 = getelementptr inbounds nuw i8, ptr %17, i64 6
  %.038.in = load i16, ptr %51, align 2, !tbaa !33
  %52 = icmp ugt i16 %.038.in, %3
  br i1 %52, label %.lr.ph, label %.thread47

.thread47:                                        ; preds = %50, %22, %43, %.lr.ph65, %1, %29, %._crit_edge
  %53 = tail call i32 @lj_ir_emit(ptr noundef %0) #6
  br label %.thread51

.thread51:                                        ; preds = %25, %.thread47
  %.2 = phi i32 [ %53, %.thread47 ], [ 4, %25 ]
  ret i32 %.2
}